target datalayout = "e-m:e-p270:32:32-p271:32:32-p272:64:64-i64:64-i128:128-f80:128-n8:16:32:64-S128"
target triple = "x86_64-pc-linux-gnu"

%"class.zmq::msg_t" = type { %union.anon }
%union.anon = type { %struct.anon }
%struct.anon = type { ptr, [34 x i8], i8, i8, i32, %"union.zmq::msg_t::group_t" }
%"union.zmq::msg_t::group_t" = type { %struct.anon.1 }
%struct.anon.1 = type { i8, ptr }
%struct.anon.3 = type { ptr, ptr, [26 x i8], i8, i8, i32, %"union.zmq::msg_t::group_t" }
%"struct.zmq::msg_t::content_t" = type { ptr, i64, ptr, ptr, %"class.zmq::atomic_counter_t" }
%"class.zmq::atomic_counter_t" = type { %"struct.std::atomic", [4 x i8] }
%"struct.std::atomic" = type { %"struct.std::__atomic_base" }
%"struct.std::__atomic_base" = type { i32 }
%struct.anon.4 = type { ptr, ptr, [26 x i8], i8, i8, i32, %"union.zmq::msg_t::group_t" }

@stderr = external global ptr, align 8
@.str = private unnamed_addr constant [30 x i8] c"Assertion failed: %s (%s:%d)\0A\00", align 1
@.str.2 = private unnamed_addr constant [103 x i8] c"generated/home/dtcxzyw/WorkSpace/Projects/compilers/llvm-opt-benchmark/bench/libzmq/libzmq/src/msg.cpp\00", align 1
@.str.7 = private unnamed_addr constant [6 x i8] c"false\00", align 1

; Function Attrs: mustprogress uwtable
define noundef ptr @_ZN3zmq5msg_t6refcntEv(ptr noundef nonnull align 8 dereferenceable(64) %0) #1 align 2 {
  %2 = alloca ptr, align 8
  %3 = alloca ptr, align 8
  store ptr %0, ptr %3, align 8, !tbaa !3
  %4 = load ptr, ptr %3, align 8
  %5 = getelementptr inbounds nuw %"class.zmq::msg_t", ptr %4, i32 0, i32 0
  %6 = getelementptr inbounds nuw %struct.anon, ptr %5, i32 0, i32 2
  %7 = load i8, ptr %6, align 2, !tbaa !8
  %8 = zext i8 %7 to i32
  switch i32 %8, label %19 [
    i32 102, label %9
    i32 105, label %14
  ]

9:                                                ; preds = %1
  %10 = getelementptr inbounds nuw %"class.zmq::msg_t", ptr %4, i32 0, i32 0
  %11 = getelementptr inbounds nuw %struct.anon.3, ptr %10, i32 0, i32 1
  %12 = load ptr, ptr %11, align 8, !tbaa !8
  %13 = getelementptr inbounds nuw %"struct.zmq::msg_t::content_t", ptr %12, i32 0, i32 4
  store ptr %13, ptr %2, align 8
  br label %26

14:                                               ; preds = %1
  %15 = getelementptr inbounds nuw %"class.zmq::msg_t", ptr %4, i32 0, i32 0
  %16 = getelementptr inbounds nuw %struct.anon.4, ptr %15, i32 0, i32 1
  %17 = load ptr, ptr %16, align 8, !tbaa !8
  %18 = getelementptr inbounds nuw %"struct.zmq::msg_t::content_t", ptr %17, i32 0, i32 4
  store ptr %18, ptr %2, align 8
  br label %26

19:                                               ; preds = %1
  br label %20

20:                                               ; preds = %19
  %21 = load ptr, ptr @stderr, align 8, !tbaa !24
  %22 = call i32 (ptr, ptr, ...) @fprintf(ptr noundef %21, ptr noundef @.str, ptr noundef @.str.7, ptr noundef @.str.2, i32 noundef 695) #14
  %23 = load ptr, ptr @stderr, align 8, !tbaa !24
  %24 = call i32 @fflush(ptr noundef %23)
  call void @_ZN3zmq9zmq_abortEPKc(ptr noundef @.str.7)
  br label %25

25:                                               ; preds = %20
  store ptr null, ptr %2, align 8
  br label %26

26:                                               ; preds = %25, %14, %9
  %27 = load ptr, ptr %2, align 8
  ret ptr %27
}