; Function Attrs: mustprogress uwtable
define noundef ptr @_ZN3zmq5msg_t6refcntEv(ptr noundef nonnull readonly align 8 captures(none) dereferenceable(64) %0) local_unnamed_addr #1 align 2 {
  %2 = getelementptr inbounds nuw i8, ptr %0, i64 42
  %3 = load i8, ptr %2, align 2, !tbaa !3
  switch i8 %3, label %12 [
    i8 102, label %4
    i8 105, label %8
  ]

4:                                                ; preds = %1
  %5 = getelementptr inbounds nuw i8, ptr %0, i64 8
  %6 = load ptr, ptr %5, align 8, !tbaa !3
  %7 = getelementptr inbounds nuw i8, ptr %6, i64 32
  br label %17

8:                                                ; preds = %1
  %9 = getelementptr inbounds nuw i8, ptr %0, i64 8
  %10 = load ptr, ptr %9, align 8, !tbaa !3
  %11 = getelementptr inbounds nuw i8, ptr %10, i64 32
  br label %17

12:                                               ; preds = %1
  %13 = load ptr, ptr @stderr, align 8, !tbaa !7
  %14 = tail call i32 (ptr, ptr, ...) @fprintf(ptr noundef %13, ptr noundef nonnull @.str, ptr noundef nonnull @.str.7, ptr noundef nonnull @.str.2, i32 noundef 695) #20
  %15 = load ptr, ptr @stderr, align 8, !tbaa !7
  %16 = tail call i32 @fflush(ptr noundef %15)
  tail call void @_ZN3zmq9zmq_abortEPKc(ptr noundef nonnull @.str.7)
  br label %17

17:                                               ; preds = %12, %8, %4
  %.0 = phi ptr [ null, %12 ], [ %11, %8 ], [ %7, %4 ]
  ret ptr %.0
}